(lp0
(dp1
S'url'
p2
S'http://mangastream.com/manga/air_gear'
p3
sS'name'
p4
S'Air Gear'
p5
sS'previousDate'
p6
cdatetime
date
p7
(S'\x00\x01\x01\x01'
p8
tp9
Rp10
sa(dp11
g2
S'http://mangastream.com/manga/area_d'
p12
sg4
S'Area D'
p13
sg6
g10
sa(dp14
g2
S'http://mangastream.com/manga/attack_on_titan_btf'
p15
sg4
S'Attack On Titan - Before The Fall'
p16
sg6
g10
sa(dp17
g2
S'http://mangastream.com/manga/attack_on_titan'
p18
sg4
S'Attack on Titan'
p19
sg6
g10
sa(dp20
g2
S'http://mangastream.com/manga/bleach'
p21
sg4
S'Bleach'
p22
sg6
g7
(S'\x07\xde\x05\x07'
p23
tp24
Rp25
sa(dp26
g2
S'http://mangastream.com/manga/cage_of_eden'
p27
sg4
S'Cage of Eden'
p28
sg6
g10
sa(dp29
g2
S'http://mangastream.com/manga/claymore'
p30
sg4
S'Claymore'
p31
sg6
g10
sa(dp32
g2
S'http://mangastream.com/manga/dgrayman'
p33
sg4
S'D.Gray-man'
p34
sg6
g10
sa(dp35
g2
S'http://mangastream.com/manga/deadman_wonderland'
p36
sg4
S'Deadman Wonderland'
p37
sg6
g10
sa(dp38
g2
S'http://mangastream.com/manga/dragon_ball_episode_of_bardock'
p39
sg4
S'Dragon Ball - Episode of Bardock'
p40
sg6
g10
sa(dp41
g2
S'http://mangastream.com/manga/dragon_ball_minus'
p42
sg4
S'Dragon Ball Minus'
p43
sg6
g10
sa(dp44
g2
S'http://mangastream.com/manga/dragon_ball_sd'
p45
sg4
S'Dragon Ball SD'
p46
sg6
g10
sa(dp47
g2
S'http://mangastream.com/manga/eureka_seven_ao'
p48
sg4
S'Eureka Seven: Astral Ocean'
p49
sg6
g10
sa(dp50
g2
S'http://mangastream.com/manga/fairy_tail'
p51
sg4
S'Fairy Tail'
p52
sg6
g7
(S'\x07\xde\x04\x1c'
p53
tp54
Rp55
sa(dp56
g2
S'http://mangastream.com/manga/green_blood'
p57
sg4
S'Green Blood'
p58
sg6
g10
sa(dp59
g2
S'http://mangastream.com/manga/hajime_no_ippo'
p60
sg4
S'Hajime no Ippo'
p61
sg6
g10
sa(dp62
g2
S'http://mangastream.com/manga/hsdk'
p63
sg4
S"History's Strongest Disciple Kenichi"
p64
sg6
g10
sa(dp65
g2
S'http://mangastream.com/manga/hunter_x_hunter'
p66
sg4
S'Hunter x Hunter'
p67
sg6
g10
sa(dp68
g2
S'http://mangastream.com/manga/jaco'
p69
sg4
S'Jaco the Galactic Patrolman'
p70
sg6
g10
sa(dp71
g2
S'http://mangastream.com/manga/katekyo_hitman_reborn'
p72
sg4
S'Katekyo Hitman Reborn!'
p73
sg6
g10
sa(dp74
g2
S'http://mangastream.com/manga/mahouka_nine'
p75
sg4
S'Mahouka Koukou no Rettousei - Nine Schools Competition Arc'
p76
sg6
g10
sa(dp77
g2
S'http://mangastream.com/manga/manga_of_the_dead'
p78
sg4
S'Manga of the Dead'
p79
sg6
g10
sa(dp80
g2
S'http://mangastream.com/manga/monster_x_monster'
p81
sg4
S'Monster X Monster'
p82
sg6
g10
sa(dp83
g2
S'http://mangastream.com/manga/naruto'
p84
sg4
S'Naruto'
p85
sg6
g7
(S'\x07\xde\x05\x07'
p86
tp87
Rp88
sa(dp89
g2
S'http://mangastream.com/manga/one_piece'
p90
sg4
S'One Piece'
p91
sg6
g7
(S'\x07\xde\x05\x07'
p92
tp93
Rp94
sa(dp95
g2
S'http://mangastream.com/manga/one_shot'
p96
sg4
S'One Shot'
p97
sg6
g10
sa(dp98
g2
S'http://mangastream.com/manga/remember'
p99
sg4
S'ReMember'
p100
sg6
g10
sa(dp101
g2
S'http://mangastream.com/manga/rock_lee'
p102
sg4
S"Rock Lee's Springtime of Youth"
p103
sg6
g10
sa(dp104
g2
S'http://mangastream.com/manga/rurouni_kenshin_restoration'
p105
sg4
S'Rurouni Kenshin: Restoration'
p106
sg6
g10
sa(dp107
g2
S'http://mangastream.com/manga/shaman_king_zero'
p108
sg4
S'Shaman King Zero'
p109
sg6
g10
sa(dp110
g2
S'http://mangastream.com/manga/soul_eater'
p111
sg4
S'Soul Eater'
p112
sg6
g10
sa(dp113
g2
S'http://mangastream.com/manga/steins_gate'
p114
sg4
S'Steins;Gate'
p115
sg6
g10
sa(dp116
g2
S'http://mangastream.com/manga/arslan'
p117
sg4
S'The Heroic Legend of Arslan'
p118
sg6
g10
sa(dp119
g2
S'http://mangastream.com/manga/toriko'
p120
sg4
S'Toriko'
p121
sg6
g7
(S'\x07\xde\x05\x07'
p122
tp123
Rp124
sa(dp125
g2
S'http://mangastream.com/manga/uq_holder'
p126
sg4
S'UQ Holder'
p127
sg6
g10
sa(dp128
g2
S'http://mangastream.com/manga/ubel_blatt'
p129
sg4
S'Ubel Blatt'
p130
sg6
g10
sa.