(lp0
(dp1
S'url'
p2
S'http://mangastream.com/manga/air_gear'
p3
sS'name'
p4
S'Air Gear'
p5
sa(dp6
g2
S'http://mangastream.com/manga/area_d'
p7
sg4
S'Area D'
p8
sa(dp9
g2
S'http://mangastream.com/manga/attack_on_titan_btf'
p10
sg4
S'Attack On Titan - Before The Fall'
p11
sa(dp12
g2
S'http://mangastream.com/manga/attack_on_titan'
p13
sg4
S'Attack on Titan'
p14
sa(dp15
g2
S'http://mangastream.com/manga/bleach'
p16
sg4
S'Bleach'
p17
sa(dp18
g2
S'http://mangastream.com/manga/cage_of_eden'
p19
sg4
S'Cage of Eden'
p20
sa(dp21
g2
S'http://mangastream.com/manga/claymore'
p22
sg4
S'Claymore'
p23
sa(dp24
g2
S'http://mangastream.com/manga/dgrayman'
p25
sg4
S'D.Gray-man'
p26
sa(dp27
g2
S'http://mangastream.com/manga/deadman_wonderland'
p28
sg4
S'Deadman Wonderland'
p29
sa(dp30
g2
S'http://mangastream.com/manga/dragon_ball_episode_of_bardock'
p31
sg4
S'Dragon Ball - Episode of Bardock'
p32
sa(dp33
g2
S'http://mangastream.com/manga/dragon_ball_sd'
p34
sg4
S'Dragon Ball SD'
p35
sa(dp36
g2
S'http://mangastream.com/manga/eureka_seven_ao'
p37
sg4
S'Eureka Seven: Astral Ocean'
p38
sa(dp39
g2
S'http://mangastream.com/manga/fairy_tail'
p40
sg4
S'Fairy Tail'
p41
sa(dp42
g2
S'http://mangastream.com/manga/green_blood'
p43
sg4
S'Green Blood'
p44
sa(dp45
g2
S'http://mangastream.com/manga/hajime_no_ippo'
p46
sg4
S'Hajime no Ippo'
p47
sa(dp48
g2
S'http://mangastream.com/manga/hsdk'
p49
sg4
S"History's Strongest Disciple Kenichi"
p50
sa(dp51
g2
S'http://mangastream.com/manga/hunter_x_hunter'
p52
sg4
S'Hunter x Hunter'
p53
sa(dp54
g2
S'http://mangastream.com/manga/jaco'
p55
sg4
S'Jaco the Galactic Patrolman'
p56
sa(dp57
g2
S'http://mangastream.com/manga/katekyo_hitman_reborn'
p58
sg4
S'Katekyo Hitman Reborn!'
p59
sa(dp60
g2
S'http://mangastream.com/manga/mahouka_nine'
p61
sg4
S'Mahouka Koukou no Rettousei - Nine Schools Competition Arc'
p62
sa(dp63
g2
S'http://mangastream.com/manga/manga_of_the_dead'
p64
sg4
S'Manga of the Dead'
p65
sa(dp66
g2
S'http://mangastream.com/manga/naruto'
p67
sg4
S'Naruto'
p68
sa(dp69
g2
S'http://mangastream.com/manga/one_piece'
p70
sg4
S'One Piece'
p71
sa(dp72
g2
S'http://mangastream.com/manga/one_shot'
p73
sg4
S'One Shot'
p74
sa(dp75
g2
S'http://mangastream.com/manga/remember'
p76
sg4
S'ReMember'
p77
sa(dp78
g2
S'http://mangastream.com/manga/rock_lee'
p79
sg4
S"Rock Lee's Springtime of Youth"
p80
sa(dp81
g2
S'http://mangastream.com/manga/rurouni_kenshin_restoration'
p82
sg4
S'Rurouni Kenshin: Restoration'
p83
sa(dp84
g2
S'http://mangastream.com/manga/shaman_king_zero'
p85
sg4
S'Shaman King Zero'
p86
sa(dp87
g2
S'http://mangastream.com/manga/soul_eater'
p88
sg4
S'Soul Eater'
p89
sa(dp90
g2
S'http://mangastream.com/manga/steins_gate'
p91
sg4
S'Steins;Gate'
p92
sa(dp93
g2
S'http://mangastream.com/manga/arslan'
p94
sg4
S'The Heroic Legend of Arslan'
p95
sa(dp96
g2
S'http://mangastream.com/manga/toriko'
p97
sg4
S'Toriko'
p98
sa(dp99
g2
S'http://mangastream.com/manga/uq_holder'
p100
sg4
S'UQ Holder'
p101
sa(dp102
g2
S'http://mangastream.com/manga/ubel_blatt'
p103
sg4
S'Ubel Blatt'
p104
sa.